; ModuleID = 'source-C-CXX/39/1339.c'
source_filename = "source-C-CXX/39/1339.c"
target datalayout = "e-m:e-p270:32:32-p271:32:32-p272:64:64-i64:64-f80:128-n8:16:32:64-S128"
target triple = "x86_64-pc-linux-gnu"

@.str = private unnamed_addr constant [4 x i8] c"%lf\00", align 1
@.str.1 = private unnamed_addr constant [6 x i8] c"%.4lf\00", align 1
@.str.2 = private unnamed_addr constant [14 x i8] c"Invalid input\00", align 1

; Function Attrs: mustprogress nofree nounwind sspstrong uwtable willreturn
define dso_local double @s(double %0, double %1, double %2, double %3, double %4) local_unnamed_addr #0 {
  %6 = fadd double %0, %1
  %7 = fadd double %6, %2
  %8 = fadd double %7, %3
  %9 = fmul double %8, 5.000000e-01
  %10 = fsub double %9, %0
  %11 = fsub double %9, %1
  %12 = fmul double %10, %11
  %13 = fsub double %9, %2
  %14 = fmul double %13, %12
  %15 = fsub double %9, %3
  %16 = fmul double %15, %14
  %17 = fmul double %0, %1
  %18 = fmul double %17, %2
  %19 = fmul double %18, %3
  %20 = fmul double %4, 0x3F91DF469D353918
  %21 = fmul double %20, 5.000000e-01
  %22 = tail call double @cos(double %21) #5
  %23 = fmul double %19, %22
  %24 = tail call double @cos(double %21) #5
  %25 = fmul double %23, %24
  %26 = fsub double %16, %25
  %27 = fcmp ult double %26, 0.000000e+00
  br i1 %27, label %35, label %28

28:                                               ; preds = %5
  %29 = tail call double @cos(double %21) #5
  %30 = fmul double %19, %29
  %31 = tail call double @cos(double %21) #5
  %32 = fmul double %30, %31
  %33 = fsub double %16, %32
  %34 = tail call double @sqrt(double %33) #5
  br label %35

35:                                               ; preds = %28, %5
  %36 = phi double [ %34, %28 ], [ %26, %5 ]
  ret double %36
}

; Function Attrs: argmemonly mustprogress nofree nosync nounwind willreturn
declare void @llvm.lifetime.start.p0i8(i64 immarg, i8* nocapture) #1

; Function Attrs: mustprogress nofree nounwind willreturn
declare double @cos(double) local_unnamed_addr #2

; Function Attrs: mustprogress nofree nounwind willreturn
declare double @sqrt(double) local_unnamed_addr #2

; Function Attrs: argmemonly mustprogress nofree nosync nounwind willreturn
declare void @llvm.lifetime.end.p0i8(i64 immarg, i8* nocapture) #1

; Function Attrs: nofree nounwind sspstrong uwtable
define dso_local i32 @main() local_unnamed_addr #3 {
  %1 = alloca double, align 8
  %2 = alloca double, align 8
  %3 = alloca double, align 8
  %4 = alloca double, align 8
  %5 = alloca double, align 8
  %6 = bitcast double* %1 to i8*
  call void @llvm.lifetime.start.p0i8(i64 8, i8* nonnull %6) #5
  %7 = bitcast double* %2 to i8*
  call void @llvm.lifetime.start.p0i8(i64 8, i8* nonnull %7) #5
  %8 = bitcast double* %3 to i8*
  call void @llvm.lifetime.start.p0i8(i64 8, i8* nonnull %8) #5
  %9 = bitcast double* %4 to i8*
  call void @llvm.lifetime.start.p0i8(i64 8, i8* nonnull %9) #5
  %10 = bitcast double* %5 to i8*
  call void @llvm.lifetime.start.p0i8(i64 8, i8* nonnull %10) #5
  %11 = call i32 (i8*, ...) @__isoc99_scanf(i8* getelementptr inbounds ([4 x i8], [4 x i8]* @.str, i64 0, i64 0), double* nonnull %1)
  %12 = call i32 (i8*, ...) @__isoc99_scanf(i8* getelementptr inbounds ([4 x i8], [4 x i8]* @.str, i64 0, i64 0), double* nonnull %2)
  %13 = call i32 (i8*, ...) @__isoc99_scanf(i8* getelementptr inbounds ([4 x i8], [4 x i8]* @.str, i64 0, i64 0), double* nonnull %3)
  %14 = call i32 (i8*, ...) @__isoc99_scanf(i8* getelementptr inbounds ([4 x i8], [4 x i8]* @.str, i64 0, i64 0), double* nonnull %4)
  %15 = call i32 (i8*, ...) @__isoc99_scanf(i8* getelementptr inbounds ([4 x i8], [4 x i8]* @.str, i64 0, i64 0), double* nonnull %5)
  %16 = load double, double* %1, align 8, !tbaa !5
  %17 = load double, double* %2, align 8, !tbaa !5
  %18 = load double, double* %3, align 8, !tbaa !5
  %19 = load double, double* %4, align 8, !tbaa !5
  %20 = load double, double* %5, align 8, !tbaa !5
  %21 = fadd double %16, %17
  %22 = fadd double %21, %18
  %23 = fadd double %22, %19
  %24 = fmul double %23, 5.000000e-01
  %25 = fsub double %24, %16
  %26 = fsub double %24, %17
  %27 = fmul double %25, %26
  %28 = fsub double %24, %18
  %29 = fmul double %28, %27
  %30 = fsub double %24, %19
  %31 = fmul double %30, %29
  %32 = fmul double %16, %17
  %33 = fmul double %32, %18
  %34 = fmul double %33, %19
  %35 = fmul double %20, 0x3F91DF469D353918
  %36 = fmul double %35, 5.000000e-01
  %37 = call double @cos(double %36) #5
  %38 = fmul double %34, %37
  %39 = call double @cos(double %36) #5
  %40 = fmul double %38, %39
  %41 = fsub double %31, %40
  %42 = fcmp ult double %41, 0.000000e+00
  br i1 %42, label %50, label %43

43:                                               ; preds = %0
  %44 = call double @cos(double %36) #5
  %45 = fmul double %34, %44
  %46 = call double @cos(double %36) #5
  %47 = fmul double %45, %46
  %48 = fsub double %31, %47
  %49 = call double @sqrt(double %48) #5
  br label %50

50:                                               ; preds = %0, %43
  %51 = phi double [ %49, %43 ], [ %41, %0 ]
  %52 = fcmp ult double %51, 0.000000e+00
  br i1 %52, label %55, label %53

53:                                               ; preds = %50
  %54 = call i32 (i8*, ...) @printf(i8* nonnull dereferenceable(1) getelementptr inbounds ([6 x i8], [6 x i8]* @.str.1, i64 0, i64 0), double %51)
  br label %57

55:                                               ; preds = %50
  %56 = call i32 (i8*, ...) @printf(i8* nonnull dereferenceable(1) getelementptr inbounds ([14 x i8], [14 x i8]* @.str.2, i64 0, i64 0))
  br label %57

57:                                               ; preds = %55, %53
  call void @llvm.lifetime.end.p0i8(i64 8, i8* nonnull %10) #5
  call void @llvm.lifetime.end.p0i8(i64 8, i8* nonnull %9) #5
  call void @llvm.lifetime.end.p0i8(i64 8, i8* nonnull %8) #5
  call void @llvm.lifetime.end.p0i8(i64 8, i8* nonnull %7) #5
  call void @llvm.lifetime.end.p0i8(i64 8, i8* nonnull %6) #5
  ret i32 0
}

; Function Attrs: nofree nounwind
declare noundef i32 @__isoc99_scanf(i8* nocapture noundef readonly, ...) local_unnamed_addr #4

; Function Attrs: nofree nounwind
declare noundef i32 @printf(i8* nocapture noundef readonly, ...) local_unnamed_addr #4


!llvm.module.flags = !{!0, !1, !2, !3}
!llvm.ident = !{!4}

!0 = !{i32 1, !"wchar_size", i32 4}
!1 = !{i32 7, !"PIC Level", i32 2}
!2 = !{i32 7, !"PIE Level", i32 2}
!3 = !{i32 7, !"uwtable", i32 1}
!4 = !{!"clang version 13.0.0"}
!5 = !{!6, !6, i64 0}
!6 = !{!"double", !7, i64 0}
!7 = !{!"omnipotent char", !8, i64 0}
!8 = !{!"Simple C/C++ TBAA"}
